target datalayout = "e-m:e-p270:32:32-p271:32:32-p272:64:64-i64:64-i128:128-f80:128-n8:16:32:64-S128"
target triple = "x86_64-unknown-linux-gnu"

%"class.std::__shared_count" = type { ptr }
%"class.arrow::FixedSizeBinaryBuilder" = type { %"class.arrow::ArrayBuilder", i32, %"class.arrow::BufferBuilder" }
%"class.arrow::ArrayBuilder" = type { ptr, ptr, i64, %"class.arrow::TypedBufferBuilder", i64, i64, i64, %"class.std::vector" }
%"class.arrow::TypedBufferBuilder" = type { %"class.arrow::BufferBuilder", i64, i64 }
%"class.std::vector" = type { %"struct.std::_Vector_base" }
%"struct.std::_Vector_base" = type { %"struct.std::_Vector_base<std::shared_ptr<arrow::ArrayBuilder>, std::allocator<std::shared_ptr<arrow::ArrayBuilder>>>::_Vector_impl" }
%"struct.std::_Vector_base<std::shared_ptr<arrow::ArrayBuilder>, std::allocator<std::shared_ptr<arrow::ArrayBuilder>>>::_Vector_impl" = type { %"struct.std::_Vector_base<std::shared_ptr<arrow::ArrayBuilder>, std::allocator<std::shared_ptr<arrow::ArrayBuilder>>>::_Vector_impl_data" }
%"struct.std::_Vector_base<std::shared_ptr<arrow::ArrayBuilder>, std::allocator<std::shared_ptr<arrow::ArrayBuilder>>>::_Vector_impl_data" = type { ptr, ptr, ptr }
%"class.arrow::BufferBuilder" = type { %"class.std::shared_ptr", ptr, ptr, i64, i64, i64 }
%"class.std::shared_ptr" = type { %"class.std::__shared_ptr" }
%"class.std::__shared_ptr" = type { ptr, %"class.std::__shared_count" }
%"class.arrow::GenericBasicDecimal.20" = type { %"struct.std::array.21" }
%"struct.std::array.21" = type { [4 x i64] }

@_ZN5arrow8bit_utilL8kBitmaskE = internal constant [8 x i8] c"\01\02\04\08\10 @\80", align 1

; Function Attrs: mustprogress nounwind uwtable
define internal void @_ZN5arrow8bit_utilL8SetBitToEPhlb(ptr noundef %bits, i64 noundef %i, i1 noundef zeroext %bit_is_set) #2 {
entry:
  %bits.addr = alloca ptr, align 8
  %i.addr = alloca i64, align 8
  %bit_is_set.addr = alloca i8, align 1
  store ptr %bits, ptr %bits.addr, align 8
  store i64 %i, ptr %i.addr, align 8
  %frombool = zext i1 %bit_is_set to i8
  store i8 %frombool, ptr %bit_is_set.addr, align 1
  %0 = load i8, ptr %bit_is_set.addr, align 1
  %tobool = trunc i8 %0 to i1
  %conv = zext i1 %tobool to i8
  %conv1 = zext i8 %conv to i32
  %sub = sub nsw i32 0, %conv1
  %1 = load ptr, ptr %bits.addr, align 8
  %2 = load i64, ptr %i.addr, align 8
  %div = sdiv i64 %2, 8
  %arrayidx = getelementptr inbounds i8, ptr %1, i64 %div
  %3 = load i8, ptr %arrayidx, align 1
  %conv2 = zext i8 %3 to i32
  %xor = xor i32 %sub, %conv2
  %conv3 = trunc i32 %xor to i8
  %conv4 = zext i8 %conv3 to i32
  %4 = load i64, ptr %i.addr, align 8
  %rem = srem i64 %4, 8
  %arrayidx5 = getelementptr inbounds [8 x i8], ptr @_ZN5arrow8bit_utilL8kBitmaskE, i64 0, i64 %rem
  %5 = load i8, ptr %arrayidx5, align 1
  %conv6 = zext i8 %5 to i32
  %and = and i32 %conv4, %conv6
  %6 = load ptr, ptr %bits.addr, align 8
  %7 = load i64, ptr %i.addr, align 8
  %div7 = sdiv i64 %7, 8
  %arrayidx8 = getelementptr inbounds i8, ptr %6, i64 %div7
  %8 = load i8, ptr %arrayidx8, align 1
  %conv9 = zext i8 %8 to i32
  %xor10 = xor i32 %conv9, %and
  %conv11 = trunc i32 %xor10 to i8
  store i8 %conv11, ptr %arrayidx8, align 1
  ret void
}

; Function Attrs: mustprogress nounwind uwtable
define linkonce_odr noundef ptr @_ZN5arrow18TypedBufferBuilderIbvE12mutable_dataEv(ptr noundef nonnull align 8 dereferenceable(72) %this) #2 comdat align 2 {
entry:
  %this.addr = alloca ptr, align 8
  store ptr %this, ptr %this.addr, align 8
  %this1 = load ptr, ptr %this.addr, align 8
  %bytes_builder_ = getelementptr inbounds %"class.arrow::TypedBufferBuilder", ptr %this1, i32 0, i32 0
  %call = call noundef ptr @_ZN5arrow13BufferBuilder12mutable_dataEv(ptr noundef nonnull align 8 dereferenceable(56) %bytes_builder_)
  ret ptr %call
}

; Function Attrs: mustprogress nounwind uwtable
define linkonce_odr noundef ptr @_ZNSt14__array_traitsImLm4EE6_S_ptrERA4_Km(ptr noundef nonnull align 8 dereferenceable(32) %__t) #2 comdat align 2 {
entry:
  %__t.addr = alloca ptr, align 8
  store ptr %__t, ptr %__t.addr, align 8
  %0 = load ptr, ptr %__t.addr, align 8
  %arraydecay = getelementptr inbounds [4 x i64], ptr %0, i64 0, i64 0
  ret ptr %arraydecay
}

; Function Attrs: mustprogress uwtable
define linkonce_odr void @_ZN5arrow18TypedBufferBuilderIbvE12UnsafeAppendEb(ptr noundef nonnull align 8 dereferenceable(72) %this, i1 noundef zeroext %value) #0 comdat align 2 {
entry:
  %this.addr = alloca ptr, align 8
  %value.addr = alloca i8, align 1
  store ptr %this, ptr %this.addr, align 8
  %frombool = zext i1 %value to i8
  store i8 %frombool, ptr %value.addr, align 1
  %this1 = load ptr, ptr %this.addr, align 8
  %call = call noundef ptr @_ZN5arrow18TypedBufferBuilderIbvE12mutable_dataEv(ptr noundef nonnull align 8 dereferenceable(72) %this1)
  %bit_length_ = getelementptr inbounds %"class.arrow::TypedBufferBuilder", ptr %this1, i32 0, i32 1
  %0 = load i64, ptr %bit_length_, align 8
  %1 = load i8, ptr %value.addr, align 1
  %tobool = trunc i8 %1 to i1
  call void @_ZN5arrow8bit_utilL8SetBitToEPhlb(ptr noundef %call, i64 noundef %0, i1 noundef zeroext %tobool)
  %2 = load i8, ptr %value.addr, align 1
  %tobool2 = trunc i8 %2 to i1
  br i1 %tobool2, label %if.end, label %if.then

if.then:                                          ; preds = %entry
  %false_count_ = getelementptr inbounds %"class.arrow::TypedBufferBuilder", ptr %this1, i32 0, i32 2
  %3 = load i64, ptr %false_count_, align 8
  %inc = add nsw i64 %3, 1
  store i64 %inc, ptr %false_count_, align 8
  br label %if.end

if.end:                                           ; preds = %if.then, %entry
  %bit_length_3 = getelementptr inbounds %"class.arrow::TypedBufferBuilder", ptr %this1, i32 0, i32 1
  %4 = load i64, ptr %bit_length_3, align 8
  %inc4 = add nsw i64 %4, 1
  store i64 %inc4, ptr %bit_length_3, align 8
  ret void
}

; Function Attrs: mustprogress nounwind uwtable
define linkonce_odr noundef ptr @_ZNKSt5arrayImLm4EE4dataEv(ptr noundef nonnull align 8 dereferenceable(32) %this) #2 comdat align 2 {
entry:
  %this.addr = alloca ptr, align 8
  store ptr %this, ptr %this.addr, align 8
  %this1 = load ptr, ptr %this.addr, align 8
  %_M_elems = getelementptr inbounds %"struct.std::array.21", ptr %this1, i32 0, i32 0
  %call = call noundef ptr @_ZNSt14__array_traitsImLm4EE6_S_ptrERA4_Km(ptr noundef nonnull align 8 dereferenceable(32) %_M_elems) #11
  ret ptr %call
}

; Function Attrs: mustprogress nounwind uwtable
define linkonce_odr noundef ptr @_ZN5arrow13BufferBuilder12mutable_dataEv(ptr noundef nonnull align 8 dereferenceable(56) %this) #2 comdat align 2 {
entry:
  %this.addr = alloca ptr, align 8
  store ptr %this, ptr %this.addr, align 8
  %this1 = load ptr, ptr %this.addr, align 8
  %data_ = getelementptr inbounds %"class.arrow::BufferBuilder", ptr %this1, i32 0, i32 2
  %0 = load ptr, ptr %data_, align 8
  ret ptr %0
}

; Function Attrs: mustprogress uwtable
define linkonce_odr void @_ZN5arrow12ArrayBuilder20UnsafeAppendToBitmapEb(ptr noundef nonnull align 8 dereferenceable(144) %this, i1 noundef zeroext %is_valid) #0 comdat align 2 {
entry:
  %this.addr = alloca ptr, align 8
  %is_valid.addr = alloca i8, align 1
  store ptr %this, ptr %this.addr, align 8
  %frombool = zext i1 %is_valid to i8
  store i8 %frombool, ptr %is_valid.addr, align 1
  %this1 = load ptr, ptr %this.addr, align 8
  %null_bitmap_builder_ = getelementptr inbounds %"class.arrow::ArrayBuilder", ptr %this1, i32 0, i32 3
  %0 = load i8, ptr %is_valid.addr, align 1
  %tobool = trunc i8 %0 to i1
  call void @_ZN5arrow18TypedBufferBuilderIbvE12UnsafeAppendEb(ptr noundef nonnull align 8 dereferenceable(72) %null_bitmap_builder_, i1 noundef zeroext %tobool)
  %length_ = getelementptr inbounds %"class.arrow::ArrayBuilder", ptr %this1, i32 0, i32 5
  %1 = load i64, ptr %length_, align 8
  %inc = add nsw i64 %1, 1
  store i64 %inc, ptr %length_, align 8
  %2 = load i8, ptr %is_valid.addr, align 1
  %tobool2 = trunc i8 %2 to i1
  br i1 %tobool2, label %if.end, label %if.then

if.then:                                          ; preds = %entry
  %null_count_ = getelementptr inbounds %"class.arrow::ArrayBuilder", ptr %this1, i32 0, i32 4
  %3 = load i64, ptr %null_count_, align 8
  %inc3 = add nsw i64 %3, 1
  store i64 %inc3, ptr %null_count_, align 8
  br label %if.end

if.end:                                           ; preds = %if.then, %entry
  ret void
}

; Function Attrs: mustprogress nounwind uwtable
define linkonce_odr void @_ZN5arrow13BufferBuilder13UnsafeAdvanceEl(ptr noundef nonnull align 8 dereferenceable(56) %this, i64 noundef %length) #2 comdat align 2 {
entry:
  %this.addr = alloca ptr, align 8
  %length.addr = alloca i64, align 8
  store ptr %this, ptr %this.addr, align 8
  store i64 %length, ptr %length.addr, align 8
  %this1 = load ptr, ptr %this.addr, align 8
  %0 = load i64, ptr %length.addr, align 8
  %size_ = getelementptr inbounds %"class.arrow::BufferBuilder", ptr %this1, i32 0, i32 4
  %1 = load i64, ptr %size_, align 8
  %add = add nsw i64 %1, %0
  store i64 %add, ptr %size_, align 8
  ret void
}

; Function Attrs: mustprogress nounwind uwtable
define linkonce_odr void @_ZNK5arrow19GenericBasicDecimalINS_15BasicDecimal256ELi256ELi4EE7ToBytesEPh(ptr noundef nonnull align 8 dereferenceable(32) %this, ptr noundef %out) #2 comdat align 2 {
entry:
  %this.addr = alloca ptr, align 8
  %out.addr = alloca ptr, align 8
  store ptr %this, ptr %this.addr, align 8
  store ptr %out, ptr %out.addr, align 8
  %this1 = load ptr, ptr %this.addr, align 8
  %0 = load ptr, ptr %out.addr, align 8
  %array_ = getelementptr inbounds %"class.arrow::GenericBasicDecimal.20", ptr %this1, i32 0, i32 0
  %call = call noundef ptr @_ZNKSt5arrayImLm4EE4dataEv(ptr noundef nonnull align 8 dereferenceable(32) %array_) #11
  call void @llvm.memcpy.p0.p0.i64(ptr align 1 %0, ptr align 8 %call, i64 32, i1 false)
  ret void
}

; Function Attrs: mustprogress uwtable
define linkonce_odr noundef ptr @_ZN5arrow22FixedSizeBinaryBuilder15GetMutableValueEl(ptr noundef nonnull align 8 dereferenceable(208) %this, i64 noundef %i) #0 comdat align 2 {
entry:
  %this.addr = alloca ptr, align 8
  %i.addr = alloca i64, align 8
  %data_ptr = alloca ptr, align 8
  store ptr %this, ptr %this.addr, align 8
  store i64 %i, ptr %i.addr, align 8
  %this1 = load ptr, ptr %this.addr, align 8
  %byte_builder_ = getelementptr inbounds %"class.arrow::FixedSizeBinaryBuilder", ptr %this1, i32 0, i32 2
  %call = call noundef ptr @_ZN5arrow13BufferBuilder12mutable_dataEv(ptr noundef nonnull align 8 dereferenceable(56) %byte_builder_)
  store ptr %call, ptr %data_ptr, align 8
  %0 = load ptr, ptr %data_ptr, align 8
  %1 = load i64, ptr %i.addr, align 8
  %byte_width_ = getelementptr inbounds %"class.arrow::FixedSizeBinaryBuilder", ptr %this1, i32 0, i32 1
  %2 = load i32, ptr %byte_width_, align 8
  %conv = sext i32 %2 to i64
  %mul = mul nsw i64 %1, %conv
  %add.ptr = getelementptr inbounds i8, ptr %0, i64 %mul
  ret ptr %add.ptr
}

; Function Attrs: mustprogress uwtable
define void @_ZN5arrow17Decimal256Builder12UnsafeAppendERKNS_10Decimal256E(ptr noundef nonnull align 8 dereferenceable(224) %this, ptr noundef nonnull align 8 dereferenceable(32) %value) #0 align 2 {
entry:
  %this.addr = alloca ptr, align 8
  %value.addr = alloca ptr, align 8
  store ptr %this, ptr %this.addr, align 8
  store ptr %value, ptr %value.addr, align 8
  %this1 = load ptr, ptr %this.addr, align 8
  %0 = load ptr, ptr %value.addr, align 8
  %vtable = load ptr, ptr %this1, align 8
  %vfn = getelementptr inbounds ptr, ptr %vtable, i64 2
  %1 = load ptr, ptr %vfn, align 8
  %call = call noundef i64 %1(ptr noundef nonnull align 8 dereferenceable(144) %this1)
  %call2 = call noundef ptr @_ZN5arrow22FixedSizeBinaryBuilder15GetMutableValueEl(ptr noundef nonnull align 8 dereferenceable(208) %this1, i64 noundef %call)
  call void @_ZNK5arrow19GenericBasicDecimalINS_15BasicDecimal256ELi256ELi4EE7ToBytesEPh(ptr noundef nonnull align 8 dereferenceable(32) %0, ptr noundef %call2)
  %byte_builder_ = getelementptr inbounds %"class.arrow::FixedSizeBinaryBuilder", ptr %this1, i32 0, i32 2
  call void @_ZN5arrow13BufferBuilder13UnsafeAdvanceEl(ptr noundef nonnull align 8 dereferenceable(56) %byte_builder_, i64 noundef 32)
  call void @_ZN5arrow12ArrayBuilder20UnsafeAppendToBitmapEb(ptr noundef nonnull align 8 dereferenceable(144) %this1, i1 noundef zeroext true)
  ret void
}